target datalayout = "e-m:e-p270:32:32-p271:32:32-p272:64:64-i64:64-i128:128-f80:128-n8:16:32:64-S128"
target triple = "x86_64-pc-linux-gnu"

%struct.sockaddr = type { i16, [14 x i8] }
%struct.msghdr = type { ptr, i32, ptr, i64, ptr, i64, i32 }

; Function Attrs: nounwind uwtable
define internal i32 @uv__udp_prep_pkt(ptr noundef %0, ptr noundef %1, i32 noundef %2, ptr noundef %3) #0 {
  %5 = alloca i32, align 4
  %6 = alloca ptr, align 8
  %7 = alloca ptr, align 8
  %8 = alloca i32, align 4
  %9 = alloca ptr, align 8
  store ptr %0, ptr %6, align 8
  store ptr %1, ptr %7, align 8
  store i32 %2, ptr %8, align 4
  store ptr %3, ptr %9, align 8
  %10 = load ptr, ptr %6, align 8
  call void @llvm.memset.p0.i64(ptr align 8 %10, i8 0, i64 56, i1 false)
  %11 = load ptr, ptr %9, align 8
  %12 = load ptr, ptr %6, align 8
  %13 = getelementptr inbounds nuw %struct.msghdr, ptr %12, i32 0, i32 0
  store ptr %11, ptr %13, align 8
  %14 = load ptr, ptr %7, align 8
  %15 = load ptr, ptr %6, align 8
  %16 = getelementptr inbounds nuw %struct.msghdr, ptr %15, i32 0, i32 2
  store ptr %14, ptr %16, align 8
  %17 = load i32, ptr %8, align 4
  %18 = zext i32 %17 to i64
  %19 = load ptr, ptr %6, align 8
  %20 = getelementptr inbounds nuw %struct.msghdr, ptr %19, i32 0, i32 3
  store i64 %18, ptr %20, align 8
  %21 = load ptr, ptr %9, align 8
  %22 = icmp eq ptr %21, null
  br i1 %22, label %23, label %24

23:                                               ; preds = %4
  store i32 0, ptr %5, align 4
  br label %42

24:                                               ; preds = %4
  %25 = load ptr, ptr %9, align 8
  %26 = getelementptr inbounds nuw %struct.sockaddr, ptr %25, i32 0, i32 0
  %27 = load i16, ptr %26, align 2
  %28 = zext i16 %27 to i32
  switch i32 %28, label %41 [
    i32 2, label %29
    i32 10, label %32
    i32 1, label %35
    i32 0, label %38
  ]

29:                                               ; preds = %24
  %30 = load ptr, ptr %6, align 8
  %31 = getelementptr inbounds nuw %struct.msghdr, ptr %30, i32 0, i32 1
  store i32 16, ptr %31, align 8
  store i32 0, ptr %5, align 4
  br label %42

32:                                               ; preds = %24
  %33 = load ptr, ptr %6, align 8
  %34 = getelementptr inbounds nuw %struct.msghdr, ptr %33, i32 0, i32 1
  store i32 28, ptr %34, align 8
  store i32 0, ptr %5, align 4
  br label %42

35:                                               ; preds = %24
  %36 = load ptr, ptr %6, align 8
  %37 = getelementptr inbounds nuw %struct.msghdr, ptr %36, i32 0, i32 1
  store i32 110, ptr %37, align 8
  store i32 0, ptr %5, align 4
  br label %42

38:                                               ; preds = %24
  %39 = load ptr, ptr %6, align 8
  %40 = getelementptr inbounds nuw %struct.msghdr, ptr %39, i32 0, i32 0
  store ptr null, ptr %40, align 8
  store i32 0, ptr %5, align 4
  br label %42

41:                                               ; preds = %24
  store i32 -22, ptr %5, align 4
  br label %42

42:                                               ; preds = %41, %38, %35, %32, %29, %23
  %43 = load i32, ptr %5, align 4
  ret i32 %43
}

; Function Attrs: nounwind uwtable
define internal i32 @uv__udp_sendmsg1(i32 noundef %0, ptr noundef %1, i32 noundef %2, ptr noundef %3) #0 {
  %5 = alloca i32, align 4
  %6 = alloca i32, align 4
  %7 = alloca ptr, align 8
  %8 = alloca i32, align 4
  %9 = alloca ptr, align 8
  %10 = alloca %struct.msghdr, align 8
  %11 = alloca i32, align 4
  %12 = alloca i32, align 4
  store i32 %0, ptr %6, align 4
  store ptr %1, ptr %7, align 8
  store i32 %2, ptr %8, align 4
  store ptr %3, ptr %9, align 8
  call void @llvm.lifetime.start.p0(i64 56, ptr %10) #10
  call void @llvm.lifetime.start.p0(i64 4, ptr %11) #10
  %13 = load ptr, ptr %7, align 8
  %14 = load i32, ptr %8, align 4
  %15 = load ptr, ptr %9, align 8
  %16 = call i32 @uv__udp_prep_pkt(ptr noundef %10, ptr noundef %13, i32 noundef %14, ptr noundef %15)
  store i32 %16, ptr %11, align 4
  %17 = icmp ne i32 %16, 0
  br i1 %17, label %18, label %20

18:                                               ; preds = %4
  %19 = load i32, ptr %11, align 4
  store i32 %19, ptr %5, align 4
  store i32 1, ptr %12, align 4
  br label %56

20:                                               ; preds = %4
  br label %21

21:                                               ; preds = %32, %20
  %22 = load i32, ptr %6, align 4
  %23 = call i64 @sendmsg(i32 noundef %22, ptr noundef %10, i32 noundef 0)
  %24 = trunc i64 %23 to i32
  store i32 %24, ptr %11, align 4
  br label %25

25:                                               ; preds = %21
  %26 = load i32, ptr %11, align 4
  %27 = icmp eq i32 %26, -1
  br i1 %27, label %28, label %32

28:                                               ; preds = %25
  %29 = call ptr @__errno_location() #11
  %30 = load i32, ptr %29, align 4
  %31 = icmp eq i32 %30, 4
  br label %32

32:                                               ; preds = %28, %25
  %33 = phi i1 [ false, %25 ], [ %31, %28 ]
  br i1 %33, label %21, label %34

34:                                               ; preds = %32
  %35 = load i32, ptr %11, align 4
  %36 = icmp slt i32 %35, 0
  br i1 %36, label %37, label %55

37:                                               ; preds = %34
  %38 = call ptr @__errno_location() #11
  %39 = load i32, ptr %38, align 4
  %40 = sub nsw i32 0, %39
  store i32 %40, ptr %11, align 4
  %41 = call ptr @__errno_location() #11
  %42 = load i32, ptr %41, align 4
  %43 = icmp eq i32 %42, 11
  br i1 %43, label %52, label %44

44:                                               ; preds = %37
  %45 = call ptr @__errno_location() #11
  %46 = load i32, ptr %45, align 4
  %47 = icmp eq i32 %46, 11
  br i1 %47, label %52, label %48

48:                                               ; preds = %44
  %49 = call ptr @__errno_location() #11
  %50 = load i32, ptr %49, align 4
  %51 = icmp eq i32 %50, 105
  br i1 %51, label %52, label %53

52:                                               ; preds = %48, %44, %37
  store i32 -11, ptr %11, align 4
  br label %53

53:                                               ; preds = %52, %48
  %54 = load i32, ptr %11, align 4
  store i32 %54, ptr %5, align 4
  store i32 1, ptr %12, align 4
  br label %56

55:                                               ; preds = %34
  store i32 1, ptr %5, align 4
  store i32 1, ptr %12, align 4
  br label %56

56:                                               ; preds = %55, %53, %18
  call void @llvm.lifetime.end.p0(i64 4, ptr %11) #10
  call void @llvm.lifetime.end.p0(i64 56, ptr %10) #10
  %57 = load i32, ptr %5, align 4
  ret i32 %57
}