; Function Attrs: nounwind uwtable
define internal fastcc range(i32 -2147483647, -2147483648) i32 @uv__udp_sendmsg1(i32 noundef %0, ptr noundef %1, i32 noundef %2, ptr noundef %3) unnamed_addr #0 {
  %5 = alloca %struct.msghdr, align 8
  call void @llvm.lifetime.start.p0(i64 56, ptr nonnull %5) #10
  %6 = getelementptr inbounds nuw i8, ptr %5, i64 8
  call void @llvm.memset.p0.i64(ptr noundef nonnull align 8 dereferenceable(56) %6, i8 0, i64 48, i1 false)
  store ptr %3, ptr %5, align 8
  %7 = getelementptr inbounds nuw i8, ptr %5, i64 16
  store ptr %1, ptr %7, align 8
  %8 = zext i32 %2 to i64
  %9 = getelementptr inbounds nuw i8, ptr %5, i64 24
  store i64 %8, ptr %9, align 8
  %10 = icmp eq ptr %3, null
  br i1 %10, label %uv__udp_prep_pkt.exit.preheader, label %11

11:                                               ; preds = %4
  %12 = load i16, ptr %3, align 2
  switch i16 %12, label %uv__udp_prep_pkt.exit.thread [
    i16 2, label %13
    i16 10, label %14
    i16 1, label %15
    i16 0, label %16
  ]

13:                                               ; preds = %11
  store i32 16, ptr %6, align 8
  br label %uv__udp_prep_pkt.exit.preheader

14:                                               ; preds = %11
  store i32 28, ptr %6, align 8
  br label %uv__udp_prep_pkt.exit.preheader

15:                                               ; preds = %11
  store i32 110, ptr %6, align 8
  br label %uv__udp_prep_pkt.exit.preheader

16:                                               ; preds = %11
  store ptr null, ptr %5, align 8
  br label %uv__udp_prep_pkt.exit.preheader

uv__udp_prep_pkt.exit.preheader:                  ; preds = %4, %13, %14, %15, %16
  br label %uv__udp_prep_pkt.exit

uv__udp_prep_pkt.exit:                            ; preds = %uv__udp_prep_pkt.exit.preheader, %20
  %17 = call i64 @sendmsg(i32 noundef %0, ptr noundef nonnull %5, i32 noundef 0) #10
  %18 = trunc i64 %17 to i32
  %19 = icmp eq i32 %18, -1
  br i1 %19, label %20, label %.critedge

20:                                               ; preds = %uv__udp_prep_pkt.exit
  %21 = tail call ptr @__errno_location() #11
  %22 = load i32, ptr %21, align 4
  %23 = icmp eq i32 %22, 4
  br i1 %23, label %uv__udp_prep_pkt.exit, label %.critedge.thread

.critedge:                                        ; preds = %uv__udp_prep_pkt.exit
  %24 = icmp slt i32 %18, 0
  br i1 %24, label %.critedge..critedge.thread_crit_edge, label %uv__udp_prep_pkt.exit.thread

.critedge..critedge.thread_crit_edge:             ; preds = %.critedge
  %.pre = tail call ptr @__errno_location() #11
  %.pr = load i32, ptr %.pre, align 4
  br label %.critedge.thread

.critedge.thread:                                 ; preds = %20, %.critedge..critedge.thread_crit_edge
  %25 = phi i32 [ %.pr, %.critedge..critedge.thread_crit_edge ], [ %22, %20 ]
  %26 = sub nsw i32 0, %25
  switch i32 %25, label %uv__udp_prep_pkt.exit.thread [
    i32 11, label %27
    i32 105, label %27
  ]

27:                                               ; preds = %.critedge.thread, %.critedge.thread
  br label %uv__udp_prep_pkt.exit.thread

uv__udp_prep_pkt.exit.thread:                     ; preds = %11, %.critedge, %27, %.critedge.thread
  %.08 = phi i32 [ -11, %27 ], [ %26, %.critedge.thread ], [ 1, %.critedge ], [ -22, %11 ]
  call void @llvm.lifetime.end.p0(i64 56, ptr nonnull %5) #10
  ret i32 %.08
}